target datalayout = "e-m:e-p270:32:32-p271:32:32-p272:64:64-i64:64-i128:128-f80:128-n8:16:32:64-S128"
target triple = "x86_64-pc-linux-gnu"

%struct.APEContext = type { ptr, ptr, %struct.BswapDSPContext, %struct.LLAudDSPContext, i32, i32, i32, i32, i32, i32, i32, i32, i32, i32, %struct.APEPredictor, %struct.APEPredictor64, ptr, i32, [2 x ptr], ptr, i32, [2 x ptr], i32, [3 x ptr], %struct.APERangecoder, %struct.APERice, %struct.APERice, [3 x [2 x %struct.APEFilter]], %struct.GetBitContext, ptr, ptr, i32, ptr, i32, i32, ptr, ptr, ptr, ptr }
%struct.BswapDSPContext = type { ptr, ptr }
%struct.LLAudDSPContext = type { ptr, ptr }
%struct.APEPredictor = type { ptr, [2 x i32], [2 x i32], [2 x i32], [2 x [4 x i32]], [2 x [5 x i32]], [562 x i32], i32 }
%struct.APEPredictor64 = type { ptr, [2 x i64], [2 x i64], [2 x i64], [2 x [4 x i64]], [2 x [5 x i64]], [562 x i64] }
%struct.APERangecoder = type { i32, i32, i32, i32 }
%struct.APERice = type { i32, i32 }
%struct.APEFilter = type { ptr, ptr, ptr, ptr, i32 }
%struct.GetBitContext = type { ptr, ptr, i32, i32, i32 }

@ape_filter_orders = internal constant [5 x [3 x i16]] [[3 x i16] zeroinitializer, [3 x i16] [i16 16, i16 0, i16 0], [3 x i16] [i16 64, i16 0, i16 0], [3 x i16] [i16 32, i16 256, i16 0], [3 x i16] [i16 16, i16 256, i16 1280]], align 16
@ape_filter_fracbits = internal constant [5 x [3 x i8]] [[3 x i8] zeroinitializer, [3 x i8] c"\0B\00\00", [3 x i8] c"\0B\00\00", [3 x i8] c"\0A\0D\00", [3 x i8] c"\0B\0D\0F"], align 1

; Function Attrs: nounwind uwtable
define internal void @apply_filter(ptr noundef %0, ptr noundef %1, ptr noundef %2, ptr noundef %3, i32 noundef %4, i32 noundef %5, i32 noundef %6) #1 {
  %8 = alloca ptr, align 8
  %9 = alloca ptr, align 8
  %10 = alloca ptr, align 8
  %11 = alloca ptr, align 8
  %12 = alloca i32, align 4
  %13 = alloca i32, align 4
  %14 = alloca i32, align 4
  store ptr %0, ptr %8, align 8, !tbaa !29
  store ptr %1, ptr %9, align 8, !tbaa !170
  store ptr %2, ptr %10, align 8, !tbaa !72
  store ptr %3, ptr %11, align 8, !tbaa !72
  store i32 %4, ptr %12, align 4, !tbaa !32
  store i32 %5, ptr %13, align 4, !tbaa !32
  store i32 %6, ptr %14, align 4, !tbaa !32
  %15 = load ptr, ptr %8, align 8, !tbaa !29
  %16 = load ptr, ptr %8, align 8, !tbaa !29
  %17 = getelementptr inbounds nuw %struct.APEContext, ptr %16, i32 0, i32 7
  %18 = load i32, ptr %17, align 4, !tbaa !52
  %19 = load ptr, ptr %9, align 8, !tbaa !170
  %20 = getelementptr inbounds %struct.APEFilter, ptr %19, i64 0
  %21 = load ptr, ptr %10, align 8, !tbaa !72
  %22 = load i32, ptr %12, align 4, !tbaa !32
  %23 = load i32, ptr %13, align 4, !tbaa !32
  %24 = load i32, ptr %14, align 4, !tbaa !32
  call void @do_apply_filter(ptr noundef %15, i32 noundef %18, ptr noundef %20, ptr noundef %21, i32 noundef %22, i32 noundef %23, i32 noundef %24)
  %25 = load ptr, ptr %11, align 8, !tbaa !72
  %26 = icmp ne ptr %25, null
  br i1 %26, label %27, label %38

27:                                               ; preds = %7
  %28 = load ptr, ptr %8, align 8, !tbaa !29
  %29 = load ptr, ptr %8, align 8, !tbaa !29
  %30 = getelementptr inbounds nuw %struct.APEContext, ptr %29, i32 0, i32 7
  %31 = load i32, ptr %30, align 4, !tbaa !52
  %32 = load ptr, ptr %9, align 8, !tbaa !170
  %33 = getelementptr inbounds %struct.APEFilter, ptr %32, i64 1
  %34 = load ptr, ptr %11, align 8, !tbaa !72
  %35 = load i32, ptr %12, align 4, !tbaa !32
  %36 = load i32, ptr %13, align 4, !tbaa !32
  %37 = load i32, ptr %14, align 4, !tbaa !32
  call void @do_apply_filter(ptr noundef %28, i32 noundef %31, ptr noundef %33, ptr noundef %34, i32 noundef %35, i32 noundef %36, i32 noundef %37)
  br label %38

38:                                               ; preds = %27, %7
  ret void
}

; Function Attrs: nounwind uwtable
define internal void @ape_apply_filters(ptr noundef %0, ptr noundef %1, ptr noundef %2, i32 noundef %3) #1 {
  %5 = alloca ptr, align 8
  %6 = alloca ptr, align 8
  %7 = alloca ptr, align 8
  %8 = alloca i32, align 4
  %9 = alloca i32, align 4
  store ptr %0, ptr %5, align 8, !tbaa !29
  store ptr %1, ptr %6, align 8, !tbaa !72
  store ptr %2, ptr %7, align 8, !tbaa !72
  store i32 %3, ptr %8, align 4, !tbaa !32
  call void @llvm.lifetime.start.p0(i64 4, ptr %9) #11
  store i32 0, ptr %9, align 4, !tbaa !32
  br label %10

10:                                               ; preds = %56, %4
  %11 = load i32, ptr %9, align 4, !tbaa !32
  %12 = icmp slt i32 %11, 3
  br i1 %12, label %13, label %59

13:                                               ; preds = %10
  %14 = load ptr, ptr %5, align 8, !tbaa !29
  %15 = getelementptr inbounds nuw %struct.APEContext, ptr %14, i32 0, i32 9
  %16 = load i32, ptr %15, align 4, !tbaa !55
  %17 = sext i32 %16 to i64
  %18 = getelementptr inbounds [5 x [3 x i16]], ptr @ape_filter_orders, i64 0, i64 %17
  %19 = load i32, ptr %9, align 4, !tbaa !32
  %20 = sext i32 %19 to i64
  %21 = getelementptr inbounds [3 x i16], ptr %18, i64 0, i64 %20
  %22 = load i16, ptr %21, align 2, !tbaa !56
  %23 = icmp ne i16 %22, 0
  br i1 %23, label %25, label %24

24:                                               ; preds = %13
  br label %59

25:                                               ; preds = %13
  %26 = load ptr, ptr %5, align 8, !tbaa !29
  %27 = load ptr, ptr %5, align 8, !tbaa !29
  %28 = getelementptr inbounds nuw %struct.APEContext, ptr %27, i32 0, i32 27
  %29 = load i32, ptr %9, align 4, !tbaa !32
  %30 = sext i32 %29 to i64
  %31 = getelementptr inbounds [3 x [2 x %struct.APEFilter]], ptr %28, i64 0, i64 %30
  %32 = getelementptr inbounds [2 x %struct.APEFilter], ptr %31, i64 0, i64 0
  %33 = load ptr, ptr %6, align 8, !tbaa !72
  %34 = load ptr, ptr %7, align 8, !tbaa !72
  %35 = load i32, ptr %8, align 4, !tbaa !32
  %36 = load ptr, ptr %5, align 8, !tbaa !29
  %37 = getelementptr inbounds nuw %struct.APEContext, ptr %36, i32 0, i32 9
  %38 = load i32, ptr %37, align 4, !tbaa !55
  %39 = sext i32 %38 to i64
  %40 = getelementptr inbounds [5 x [3 x i16]], ptr @ape_filter_orders, i64 0, i64 %39
  %41 = load i32, ptr %9, align 4, !tbaa !32
  %42 = sext i32 %41 to i64
  %43 = getelementptr inbounds [3 x i16], ptr %40, i64 0, i64 %42
  %44 = load i16, ptr %43, align 2, !tbaa !56
  %45 = zext i16 %44 to i32
  %46 = load ptr, ptr %5, align 8, !tbaa !29
  %47 = getelementptr inbounds nuw %struct.APEContext, ptr %46, i32 0, i32 9
  %48 = load i32, ptr %47, align 4, !tbaa !55
  %49 = sext i32 %48 to i64
  %50 = getelementptr inbounds [5 x [3 x i8]], ptr @ape_filter_fracbits, i64 0, i64 %49
  %51 = load i32, ptr %9, align 4, !tbaa !32
  %52 = sext i32 %51 to i64
  %53 = getelementptr inbounds [3 x i8], ptr %50, i64 0, i64 %52
  %54 = load i8, ptr %53, align 1, !tbaa !51
  %55 = zext i8 %54 to i32
  call void @apply_filter(ptr noundef %26, ptr noundef %32, ptr noundef %33, ptr noundef %34, i32 noundef %35, i32 noundef %45, i32 noundef %55)
  br label %56

56:                                               ; preds = %25
  %57 = load i32, ptr %9, align 4, !tbaa !32
  %58 = add nsw i32 %57, 1
  store i32 %58, ptr %9, align 4, !tbaa !32
  br label %10, !llvm.loop !169

59:                                               ; preds = %24, %10
  call void @llvm.lifetime.end.p0(i64 4, ptr %9) #11
  ret void
}