; Function Attrs: nounwind uwtable
define internal fastcc void @ape_apply_filters(ptr noundef captures(none) %0, ptr noundef captures(none) %1, ptr noundef captures(address_is_null) %2, i32 noundef %3) unnamed_addr #1 {
  %5 = getelementptr inbounds nuw i8, ptr %0, i64 68
  %6 = getelementptr inbounds nuw i8, ptr %0, i64 7272
  %7 = getelementptr inbounds nuw i8, ptr %0, i64 60
  %.not.i = icmp eq ptr %2, null
  br i1 %.not.i, label %.split.us, label %.split

.split.us:                                        ; preds = %4, %apply_filter.exit.us
  %indvars.iv19 = phi i64 [ %indvars.iv.next20, %apply_filter.exit.us ], [ 0, %4 ]
  %8 = load i32, ptr %5, align 4, !tbaa !51
  %9 = sext i32 %8 to i64
  %10 = getelementptr inbounds [5 x [3 x i16]], ptr @ape_filter_orders, i64 0, i64 %9, i64 %indvars.iv19
  %11 = load i16, ptr %10, align 2, !tbaa !54
  %.not.us = icmp eq i16 %11, 0
  br i1 %.not.us, label %.split16.us, label %apply_filter.exit.us

apply_filter.exit.us:                             ; preds = %.split.us
  %12 = getelementptr inbounds nuw [3 x [2 x %struct.APEFilter]], ptr %6, i64 0, i64 %indvars.iv19
  %13 = zext i16 %11 to i32
  %14 = getelementptr inbounds [5 x [3 x i8]], ptr @ape_filter_fracbits, i64 0, i64 %9, i64 %indvars.iv19
  %15 = load i8, ptr %14, align 1, !tbaa !47
  %16 = zext i8 %15 to i32
  %17 = load i32, ptr %7, align 4, !tbaa !48
  tail call fastcc void @do_apply_filter(ptr noundef nonnull readonly %0, i32 noundef %17, ptr noundef nonnull %12, ptr noundef %1, i32 noundef %3, i32 noundef range(i32 1, 65536) %13, i32 noundef range(i32 0, 256) %16)
  %indvars.iv.next20 = add nuw nsw i64 %indvars.iv19, 1
  %exitcond22.not = icmp eq i64 %indvars.iv.next20, 3
  br i1 %exitcond22.not, label %.split16.us, label %.split.us, !llvm.loop !127

.split:                                           ; preds = %4, %apply_filter.exit
  %indvars.iv = phi i64 [ %indvars.iv.next, %apply_filter.exit ], [ 0, %4 ]
  %18 = load i32, ptr %5, align 4, !tbaa !51
  %19 = sext i32 %18 to i64
  %20 = getelementptr inbounds [5 x [3 x i16]], ptr @ape_filter_orders, i64 0, i64 %19, i64 %indvars.iv
  %21 = load i16, ptr %20, align 2, !tbaa !54
  %.not = icmp eq i16 %21, 0
  br i1 %.not, label %.split16.us, label %apply_filter.exit

apply_filter.exit:                                ; preds = %.split
  %22 = getelementptr inbounds nuw [3 x [2 x %struct.APEFilter]], ptr %6, i64 0, i64 %indvars.iv
  %23 = zext i16 %21 to i32
  %24 = getelementptr inbounds [5 x [3 x i8]], ptr @ape_filter_fracbits, i64 0, i64 %19, i64 %indvars.iv
  %25 = load i8, ptr %24, align 1, !tbaa !47
  %26 = zext i8 %25 to i32
  %27 = load i32, ptr %7, align 4, !tbaa !48
  tail call fastcc void @do_apply_filter(ptr noundef nonnull readonly %0, i32 noundef %27, ptr noundef nonnull %22, ptr noundef %1, i32 noundef %3, i32 noundef range(i32 1, 65536) %23, i32 noundef range(i32 0, 256) %26)
  %28 = load i32, ptr %7, align 4, !tbaa !48
  %29 = getelementptr inbounds nuw i8, ptr %22, i64 40
  tail call fastcc void @do_apply_filter(ptr noundef nonnull readonly %0, i32 noundef %28, ptr noundef nonnull %29, ptr noundef nonnull %2, i32 noundef %3, i32 noundef range(i32 1, 65536) %23, i32 noundef range(i32 0, 256) %26)
  %indvars.iv.next = add nuw nsw i64 %indvars.iv, 1
  %exitcond.not = icmp eq i64 %indvars.iv.next, 3
  br i1 %exitcond.not, label %.split16.us, label %.split, !llvm.loop !127

.split16.us:                                      ; preds = %apply_filter.exit, %.split, %.split.us, %apply_filter.exit.us
  ret void
}